target datalayout = "e-m:e-p270:32:32-p271:32:32-p272:64:64-i64:64-i128:128-f80:128-n8:16:32:64-S128"
target triple = "x86_64-pc-linux-gnu"

%"class.WasmEdge::AST::Instruction" = type <{ %"union.WasmEdge::AST::Instruction::Inner", i32, i32, %struct.anon.119, [7 x i8] }>
%"union.WasmEdge::AST::Instruction::Inner" = type { i128 }
%struct.anon.119 = type { i8 }
%class.anon.260 = type { ptr, ptr, ptr }
%"class.WasmEdge::AST::CompositeType" = type { i8, [7 x i8], %"class.std::variant.267" }
%"class.std::variant.267" = type { %"struct.std::__detail::__variant::_Variant_base.base.285", [7 x i8] }
%"struct.std::__detail::__variant::_Variant_base.base.285" = type { %"struct.std::__detail::__variant::_Move_assign_base.base.284" }
%"struct.std::__detail::__variant::_Move_assign_base.base.284" = type { %"struct.std::__detail::__variant::_Copy_assign_base.base.283" }
%"struct.std::__detail::__variant::_Copy_assign_base.base.283" = type { %"struct.std::__detail::__variant::_Move_ctor_base.base.282" }
%"struct.std::__detail::__variant::_Move_ctor_base.base.282" = type { %"struct.std::__detail::__variant::_Copy_ctor_base.base.281" }
%"struct.std::__detail::__variant::_Copy_ctor_base.base.281" = type { %"struct.std::__detail::__variant::_Variant_storage.base.280" }
%"struct.std::__detail::__variant::_Variant_storage.base.280" = type { %"union.std::__detail::__variant::_Variadic_union.274", i8 }
%"union.std::__detail::__variant::_Variadic_union.274" = type { %"union.std::__detail::__variant::_Variadic_union.277" }
%"union.std::__detail::__variant::_Variadic_union.277" = type { %"struct.std::__detail::__variant::_Uninitialized.278" }
%"struct.std::__detail::__variant::_Uninitialized.278" = type { %"struct.__gnu_cxx::__aligned_membuf.279" }
%"struct.__gnu_cxx::__aligned_membuf.279" = type { [72 x i8] }
%struct.anon.114 = type { i32, i32, i32 }
%"class.WasmEdge::AST::SubType" = type <{ i8, [7 x i8], %"class.std::vector.322", %"class.WasmEdge::AST::CompositeType", %"class.std::optional", %"class.std::optional.328", [4 x i8] }>
%"class.std::vector.322" = type { %"struct.std::_Vector_base.323" }
%"struct.std::_Vector_base.323" = type { %"struct.std::_Vector_base<unsigned int, std::allocator<unsigned int>>::_Vector_impl" }
%"struct.std::_Vector_base<unsigned int, std::allocator<unsigned int>>::_Vector_impl" = type { %"struct.std::_Vector_base<unsigned int, std::allocator<unsigned int>>::_Vector_impl_data" }
%"struct.std::_Vector_base<unsigned int, std::allocator<unsigned int>>::_Vector_impl_data" = type { ptr, ptr, ptr }
%"class.std::optional" = type { %"struct.std::_Optional_base" }
%"struct.std::_Optional_base" = type { %"struct.std::_Optional_payload" }
%"struct.std::_Optional_payload" = type { %"struct.std::_Optional_payload_base.base", [3 x i8] }
%"struct.std::_Optional_payload_base.base" = type <{ %"union.std::_Optional_payload_base<WasmEdge::AST::SubType::RecInfo>::_Storage", i8 }>
%"union.std::_Optional_payload_base<WasmEdge::AST::SubType::RecInfo>::_Storage" = type { %"struct.WasmEdge::AST::SubType::RecInfo" }
%"struct.WasmEdge::AST::SubType::RecInfo" = type { i32, i32 }
%"class.std::optional.328" = type { %"struct.std::_Optional_base.329" }
%"struct.std::_Optional_base.329" = type { %"struct.std::_Optional_payload.331" }
%"struct.std::_Optional_payload.331" = type { %"struct.std::_Optional_payload_base.base.333", [3 x i8] }
%"struct.std::_Optional_payload_base.base.333" = type <{ %"union.std::_Optional_payload_base<unsigned int>::_Storage", i8 }>
%"union.std::_Optional_payload_base<unsigned int>::_Storage" = type { i32 }

; Function Attrs: mustprogress uwtable
define linkonce_odr hidden void @_ZNSt8__detail9__variant15_Move_ctor_baseILb0EJSt6vectorIN8WasmEdge3AST9FieldTypeESaIS5_EENS4_12FunctionTypeEEEC2ERKS9_(ptr noundef nonnull align 8 dereferenceable(73) %0, ptr noundef nonnull align 8 dereferenceable(73) %1) unnamed_addr #0 comdat align 2 {
  %3 = alloca ptr, align 8
  %4 = alloca ptr, align 8
  store ptr %0, ptr %3, align 8
  store ptr %1, ptr %4, align 8
  %5 = load ptr, ptr %3, align 8
  %6 = load ptr, ptr %4, align 8
  call void @_ZNSt8__detail9__variant15_Copy_ctor_baseILb0EJSt6vectorIN8WasmEdge3AST9FieldTypeESaIS5_EENS4_12FunctionTypeEEEC2ERKS9_(ptr noundef nonnull align 8 dereferenceable(73) %5, ptr noundef nonnull align 8 dereferenceable(73) %6)
  ret void
}

; Function Attrs: mustprogress uwtable
define linkonce_odr hidden void @_ZNSt8__detail9__variant17_Copy_assign_baseILb0EJSt6vectorIN8WasmEdge3AST9FieldTypeESaIS5_EENS4_12FunctionTypeEEEC2ERKS9_(ptr noundef nonnull align 8 dereferenceable(73) %0, ptr noundef nonnull align 8 dereferenceable(73) %1) unnamed_addr #0 comdat align 2 {
  %3 = alloca ptr, align 8
  %4 = alloca ptr, align 8
  store ptr %0, ptr %3, align 8
  store ptr %1, ptr %4, align 8
  %5 = load ptr, ptr %3, align 8
  %6 = load ptr, ptr %4, align 8
  call void @_ZNSt8__detail9__variant15_Move_ctor_baseILb0EJSt6vectorIN8WasmEdge3AST9FieldTypeESaIS5_EENS4_12FunctionTypeEEEC2ERKS9_(ptr noundef nonnull align 8 dereferenceable(73) %5, ptr noundef nonnull align 8 dereferenceable(73) %6)
  ret void
}

; Function Attrs: mustprogress uwtable
define linkonce_odr hidden void @_ZNSt8__detail9__variant17_Move_assign_baseILb0EJSt6vectorIN8WasmEdge3AST9FieldTypeESaIS5_EENS4_12FunctionTypeEEEC2ERKS9_(ptr noundef nonnull align 8 dereferenceable(73) %0, ptr noundef nonnull align 8 dereferenceable(73) %1) unnamed_addr #0 comdat align 2 {
  %3 = alloca ptr, align 8
  %4 = alloca ptr, align 8
  store ptr %0, ptr %3, align 8
  store ptr %1, ptr %4, align 8
  %5 = load ptr, ptr %3, align 8
  %6 = load ptr, ptr %4, align 8
  call void @_ZNSt8__detail9__variant17_Copy_assign_baseILb0EJSt6vectorIN8WasmEdge3AST9FieldTypeESaIS5_EENS4_12FunctionTypeEEEC2ERKS9_(ptr noundef nonnull align 8 dereferenceable(73) %5, ptr noundef nonnull align 8 dereferenceable(73) %6)
  ret void
}

; Function Attrs: mustprogress uwtable
define linkonce_odr hidden void @_ZNSt8__detail9__variant13_Variant_baseIJSt6vectorIN8WasmEdge3AST9FieldTypeESaIS5_EENS4_12FunctionTypeEEEC2ERKS9_(ptr noundef nonnull align 8 dereferenceable(73) %0, ptr noundef nonnull align 8 dereferenceable(73) %1) unnamed_addr #0 comdat align 2 {
  %3 = alloca ptr, align 8
  %4 = alloca ptr, align 8
  store ptr %0, ptr %3, align 8
  store ptr %1, ptr %4, align 8
  %5 = load ptr, ptr %3, align 8
  %6 = load ptr, ptr %4, align 8
  call void @_ZNSt8__detail9__variant17_Move_assign_baseILb0EJSt6vectorIN8WasmEdge3AST9FieldTypeESaIS5_EENS4_12FunctionTypeEEEC2ERKS9_(ptr noundef nonnull align 8 dereferenceable(73) %5, ptr noundef nonnull align 8 dereferenceable(73) %6)
  ret void
}

; Function Attrs: mustprogress uwtable
define linkonce_odr hidden void @_ZNSt7variantIJSt6vectorIN8WasmEdge3AST9FieldTypeESaIS3_EENS2_12FunctionTypeEEEC2ERKS7_(ptr noundef nonnull align 8 dereferenceable(73) %0, ptr noundef nonnull align 8 dereferenceable(73) %1) unnamed_addr #0 comdat align 2 {
  %3 = alloca ptr, align 8
  %4 = alloca ptr, align 8
  store ptr %0, ptr %3, align 8
  store ptr %1, ptr %4, align 8
  %5 = load ptr, ptr %3, align 8
  %6 = load ptr, ptr %4, align 8
  call void @_ZNSt8__detail9__variant13_Variant_baseIJSt6vectorIN8WasmEdge3AST9FieldTypeESaIS5_EENS4_12FunctionTypeEEEC2ERKS9_(ptr noundef nonnull align 8 dereferenceable(73) %5, ptr noundef nonnull align 8 dereferenceable(73) %6)
  ret void
}

; Function Attrs: mustprogress uwtable
define linkonce_odr hidden void @_ZN8WasmEdge3AST13CompositeTypeC2ERKS1_(ptr noundef nonnull align 8 dereferenceable(88) %0, ptr noundef nonnull align 8 dereferenceable(88) %1) unnamed_addr #0 comdat align 2 {
  %3 = alloca ptr, align 8
  %4 = alloca ptr, align 8
  store ptr %0, ptr %3, align 8
  store ptr %1, ptr %4, align 8
  %5 = load ptr, ptr %3, align 8
  %6 = getelementptr inbounds %"class.WasmEdge::AST::CompositeType", ptr %5, i32 0, i32 0
  %7 = load ptr, ptr %4, align 8
  %8 = getelementptr inbounds %"class.WasmEdge::AST::CompositeType", ptr %7, i32 0, i32 0
  %9 = load i8, ptr %8, align 8
  store i8 %9, ptr %6, align 8
  %10 = getelementptr inbounds %"class.WasmEdge::AST::CompositeType", ptr %5, i32 0, i32 2
  %11 = load ptr, ptr %4, align 8
  %12 = getelementptr inbounds %"class.WasmEdge::AST::CompositeType", ptr %11, i32 0, i32 2
  call void @_ZNSt7variantIJSt6vectorIN8WasmEdge3AST9FieldTypeESaIS3_EENS2_12FunctionTypeEEEC2ERKS7_(ptr noundef nonnull align 8 dereferenceable(73) %10, ptr noundef nonnull align 8 dereferenceable(73) %12)
  ret void
}

; Function Attrs: mustprogress nounwind uwtable
define linkonce_odr hidden noundef nonnull align 8 dereferenceable(88) ptr @_ZNK8WasmEdge3AST7SubType16getCompositeTypeEv(ptr noundef nonnull align 8 dereferenceable(140) %0) #1 comdat align 2 {
  %2 = alloca ptr, align 8
  store ptr %0, ptr %2, align 8
  %3 = load ptr, ptr %2, align 8
  %4 = getelementptr inbounds %"class.WasmEdge::AST::SubType", ptr %3, i32 0, i32 3
  ret ptr %4
}

; Function Attrs: mustprogress nounwind uwtable
define linkonce_odr hidden noundef i32 @_ZNK8WasmEdge3AST11Instruction14getTargetIndexEv(ptr noundef nonnull align 16 dereferenceable(25) %0) #1 comdat align 2 {
  %2 = alloca ptr, align 8
  store ptr %0, ptr %2, align 8
  %3 = load ptr, ptr %2, align 8
  %4 = getelementptr inbounds %"class.WasmEdge::AST::Instruction", ptr %3, i32 0, i32 0
  %5 = getelementptr inbounds %struct.anon.114, ptr %4, i32 0, i32 0
  %6 = load i32, ptr %5, align 16
  ret i32 %6
}

; Function Attrs: mustprogress uwtable
define internal void @"_ZZZN8WasmEdge8Executor8Executor7executeERNS_7Runtime12StackManagerEPKNS_3AST11InstructionES8_ENK3$_0clEvENKUlvE_clEv"(ptr dead_on_unwind noalias writable sret(%"class.WasmEdge::AST::CompositeType") align 8 %0, ptr noundef nonnull align 8 dereferenceable(24) %1) #0 align 2 {
  %3 = alloca ptr, align 8
  %4 = alloca ptr, align 8
  store ptr %0, ptr %3, align 8
  store ptr %1, ptr %4, align 8
  %5 = load ptr, ptr %4, align 8
  %6 = getelementptr inbounds %class.anon.260, ptr %5, i32 0, i32 2
  %7 = load ptr, ptr %6, align 8
  %8 = getelementptr inbounds %class.anon.260, ptr %5, i32 0, i32 0
  %9 = load ptr, ptr %8, align 8
  %10 = getelementptr inbounds %class.anon.260, ptr %5, i32 0, i32 1
  %11 = load ptr, ptr %10, align 8
  %12 = call noundef i32 @_ZNK8WasmEdge3AST11Instruction14getTargetIndexEv(ptr noundef nonnull align 16 dereferenceable(25) %11) #19
  %13 = call noundef ptr @_ZNK8WasmEdge8Executor8Executor15getDefTypeByIdxERNS_7Runtime12StackManagerEj(ptr noundef nonnull align 8 dereferenceable(408) %7, ptr noundef nonnull align 8 dereferenceable(48) %9, i32 noundef %12)
  %14 = call noundef nonnull align 8 dereferenceable(88) ptr @_ZNK8WasmEdge3AST7SubType16getCompositeTypeEv(ptr noundef nonnull align 8 dereferenceable(140) %13) #19
  call void @_ZN8WasmEdge3AST13CompositeTypeC2ERKS1_(ptr noundef nonnull align 8 dereferenceable(88) %0, ptr noundef nonnull align 8 dereferenceable(88) %14)
  ret void
}